; Function Attrs: mustprogress nounwind uwtable
define internal noundef nonnull align 8 dereferenceable(20) ptr @_ZN12_GLOBAL__N_115ThreadSafeState14getTypeUnitMapEb(ptr noundef nonnull align 8 dereferenceable(480) %0, i1 noundef zeroext %1) unnamed_addr #0 align 2 {
  %3 = getelementptr inbounds nuw i8, ptr %0, i64 440
  %4 = tail call noundef i32 @pthread_mutex_lock(ptr noundef nonnull %3) #24
  %.not.i.i.i = icmp eq i32 %4, 0
  br i1 %.not.i.i.i, label %_ZNSt11unique_lockISt15recursive_mutexED2Ev.exit, label %5

5:                                                ; preds = %2
  tail call void @_ZSt20__throw_system_errori(i32 noundef %4) #26
  unreachable

_ZNSt11unique_lockISt15recursive_mutexED2Ev.exit: ; preds = %2
  %6 = tail call noundef nonnull align 8 dereferenceable(20) ptr @_ZN12_GLOBAL__N_129ThreadUnsafeDWARFContextState14getTypeUnitMapEb(ptr noundef nonnull align 8 dereferenceable(440) %0, i1 noundef zeroext %1)
  %7 = tail call noundef i32 @pthread_mutex_unlock(ptr noundef nonnull %3) #24
  ret ptr %6
}